target datalayout = "e-m:e-p270:32:32-p271:32:32-p272:64:64-i64:64-i128:128-f80:128-n8:16:32:64-S128"
target triple = "x86_64-pc-linux-gnu"

%struct.paramType = type { i32, ptr, ptr, i32 }
%class.Scheduler = type { [200 x %"struct.Scheduler::handType"], [200 x %"struct.Scheduler::groupType"], i32, i32, %"struct.std::atomic", [6 x [200 x %"struct.Scheduler::listType"]], [200 x %"struct.Scheduler::sortType"], i32, %"class.std::vector", %"class.std::vector", %"class.std::vector", i32, i32, %"class.std::vector", %"class.std::vector.0", %class.Timer }
%"struct.Scheduler::handType" = type { i32, i32, [4 x [4 x i32]], i32, i32, i32, i32, i32, i32, i32, i32, i32, i32 }
%"struct.Scheduler::groupType" = type { i32, i32, i32, i32, i32, i32 }
%"struct.std::atomic" = type { %"struct.std::__atomic_base" }
%"struct.std::__atomic_base" = type { i32 }
%"struct.Scheduler::listType" = type { i32, i32, i32 }
%"struct.Scheduler::sortType" = type { i32, i32 }
%"class.std::vector" = type { %"struct.std::_Vector_base" }
%"struct.std::_Vector_base" = type { %"struct.std::_Vector_base<int, std::allocator<int>>::_Vector_impl" }
%"struct.std::_Vector_base<int, std::allocator<int>>::_Vector_impl" = type { %"struct.std::_Vector_base<int, std::allocator<int>>::_Vector_impl_data" }
%"struct.std::_Vector_base<int, std::allocator<int>>::_Vector_impl_data" = type { ptr, ptr, ptr }
%"class.std::vector.0" = type { %"struct.std::_Vector_base.1" }
%"struct.std::_Vector_base.1" = type { %"struct.std::_Vector_base<Timer, std::allocator<Timer>>::_Vector_impl" }
%"struct.std::_Vector_base<Timer, std::allocator<Timer>>::_Vector_impl" = type { %"struct.std::_Vector_base<Timer, std::allocator<Timer>>::_Vector_impl_data" }
%"struct.std::_Vector_base<Timer, std::allocator<Timer>>::_Vector_impl_data" = type { ptr, ptr, ptr }
%class.Timer = type { %"class.std::__cxx11::basic_string", i32, i64, i64, %"class.std::chrono::time_point", i64 }
%"class.std::__cxx11::basic_string" = type { %"struct.std::__cxx11::basic_string<char>::_Alloc_hider", i64, %union.anon }
%"struct.std::__cxx11::basic_string<char>::_Alloc_hider" = type { ptr }
%union.anon = type { i64, [8 x i8] }
%"class.std::chrono::time_point" = type { %"class.std::chrono::duration" }
%"class.std::chrono::duration" = type { i64 }
%struct.futureTricks = type { i32, i32, [13 x i32], [13 x i32], [13 x i32], [13 x i32] }
%struct.deal = type { i32, i32, [3 x i32], [3 x i32], [4 x [4 x i32]] }
%struct.boards = type { i32, [200 x %struct.deal], [200 x i32], [200 x i32], [200 x i32] }
%struct.solvedBoards = type { i32, [200 x %struct.futureTricks] }
%struct.schedType = type { i32, i32 }

@param = global %struct.paramType zeroinitializer, align 8
@scheduler = external global %class.Scheduler, align 8

; Function Attrs: mustprogress uwtable
define void @_Z17SolveSingleCommonii(i32 noundef %0, i32 noundef %1) #4 {
  %3 = alloca i32, align 4
  %4 = alloca i32, align 4
  %5 = alloca %struct.futureTricks, align 4
  %6 = alloca i32, align 4
  %7 = alloca %struct.deal, align 8
  store i32 %0, ptr %3, align 4
  store i32 %1, ptr %4, align 4
  %8 = load ptr, ptr getelementptr inbounds nuw (%struct.paramType, ptr @param, i32 0, i32 1), align 8
  %9 = getelementptr inbounds nuw %struct.boards, ptr %8, i32 0, i32 1
  %10 = load i32, ptr %4, align 4
  %11 = sext i32 %10 to i64
  %12 = getelementptr inbounds [200 x %struct.deal], ptr %9, i64 0, i64 %11
  call void @llvm.memcpy.p0.p0.i64(ptr align 4 %7, ptr align 4 %12, i64 96, i1 false)
  %13 = load ptr, ptr getelementptr inbounds nuw (%struct.paramType, ptr @param, i32 0, i32 1), align 8
  %14 = getelementptr inbounds nuw %struct.boards, ptr %13, i32 0, i32 2
  %15 = load i32, ptr %4, align 4
  %16 = sext i32 %15 to i64
  %17 = getelementptr inbounds [200 x i32], ptr %14, i64 0, i64 %16
  %18 = load i32, ptr %17, align 4
  %19 = load ptr, ptr getelementptr inbounds nuw (%struct.paramType, ptr @param, i32 0, i32 1), align 8
  %20 = getelementptr inbounds nuw %struct.boards, ptr %19, i32 0, i32 3
  %21 = load i32, ptr %4, align 4
  %22 = sext i32 %21 to i64
  %23 = getelementptr inbounds [200 x i32], ptr %20, i64 0, i64 %22
  %24 = load i32, ptr %23, align 4
  %25 = load ptr, ptr getelementptr inbounds nuw (%struct.paramType, ptr @param, i32 0, i32 1), align 8
  %26 = getelementptr inbounds nuw %struct.boards, ptr %25, i32 0, i32 4
  %27 = load i32, ptr %4, align 4
  %28 = sext i32 %27 to i64
  %29 = getelementptr inbounds [200 x i32], ptr %26, i64 0, i64 %28
  %30 = load i32, ptr %29, align 4
  %31 = load i32, ptr %3, align 4
  %32 = call i32 @SolveBoard(ptr noundef byval(%struct.deal) align 8 %7, i32 noundef %18, i32 noundef %24, i32 noundef %30, ptr noundef %5, i32 noundef %31)
  store i32 %32, ptr %6, align 4
  %33 = load i32, ptr %6, align 4
  %34 = icmp eq i32 %33, 1
  br i1 %34, label %35, label %41

35:                                               ; preds = %2
  %36 = load ptr, ptr getelementptr inbounds nuw (%struct.paramType, ptr @param, i32 0, i32 2), align 8
  %37 = getelementptr inbounds nuw %struct.solvedBoards, ptr %36, i32 0, i32 1
  %38 = load i32, ptr %4, align 4
  %39 = sext i32 %38 to i64
  %40 = getelementptr inbounds [200 x %struct.futureTricks], ptr %37, i64 0, i64 %39
  call void @llvm.memcpy.p0.p0.i64(ptr align 4 %40, ptr align 4 %5, i64 216, i1 false)
  br label %43

41:                                               ; preds = %2
  %42 = load i32, ptr %6, align 4
  store i32 %42, ptr getelementptr inbounds nuw (%struct.paramType, ptr @param, i32 0, i32 3), align 8
  br label %43

43:                                               ; preds = %41, %35
  ret void
}

; Function Attrs: mustprogress uwtable
define void @_Z16SolveChunkCommoni(i32 noundef %0) #4 {
  %2 = alloca i32, align 4
  %3 = alloca i32, align 4
  %4 = alloca %struct.schedType, align 4
  %5 = alloca %struct.schedType, align 4
  store i32 %0, ptr %2, align 4
  br label %6

6:                                                ; preds = %50, %35, %1
  %7 = load i32, ptr %2, align 4
  %8 = call i64 @_ZN9Scheduler9GetNumberEi(ptr noundef nonnull align 8 dereferenceable(43416) @scheduler, i32 noundef %7)
  store i64 %8, ptr %5, align 4
  call void @llvm.memcpy.p0.p0.i64(ptr align 4 %4, ptr align 4 %5, i64 8, i1 false)
  %9 = getelementptr inbounds nuw %struct.schedType, ptr %4, i32 0, i32 0
  %10 = load i32, ptr %9, align 4
  store i32 %10, ptr %3, align 4
  %11 = load i32, ptr %3, align 4
  %12 = icmp eq i32 %11, -1
  br i1 %12, label %13, label %14

13:                                               ; preds = %6
  br label %51

14:                                               ; preds = %6
  %15 = getelementptr inbounds nuw %struct.schedType, ptr %4, i32 0, i32 1
  %16 = load i32, ptr %15, align 4
  %17 = icmp ne i32 %16, -1
  br i1 %17, label %18, label %47

18:                                               ; preds = %14
  %19 = load ptr, ptr getelementptr inbounds nuw (%struct.paramType, ptr @param, i32 0, i32 1), align 8
  %20 = getelementptr inbounds nuw %struct.boards, ptr %19, i32 0, i32 1
  %21 = load i32, ptr %3, align 4
  %22 = sext i32 %21 to i64
  %23 = getelementptr inbounds [200 x %struct.deal], ptr %20, i64 0, i64 %22
  %24 = getelementptr inbounds nuw %struct.deal, ptr %23, i32 0, i32 1
  %25 = load i32, ptr %24, align 4
  %26 = load ptr, ptr getelementptr inbounds nuw (%struct.paramType, ptr @param, i32 0, i32 1), align 8
  %27 = getelementptr inbounds nuw %struct.boards, ptr %26, i32 0, i32 1
  %28 = getelementptr inbounds nuw %struct.schedType, ptr %4, i32 0, i32 1
  %29 = load i32, ptr %28, align 4
  %30 = sext i32 %29 to i64
  %31 = getelementptr inbounds [200 x %struct.deal], ptr %27, i64 0, i64 %30
  %32 = getelementptr inbounds nuw %struct.deal, ptr %31, i32 0, i32 1
  %33 = load i32, ptr %32, align 4
  %34 = icmp eq i32 %25, %33
  br i1 %34, label %35, label %47

35:                                               ; preds = %18
  %36 = load ptr, ptr getelementptr inbounds nuw (%struct.paramType, ptr @param, i32 0, i32 2), align 8
  %37 = getelementptr inbounds nuw %struct.solvedBoards, ptr %36, i32 0, i32 1
  %38 = getelementptr inbounds nuw %struct.schedType, ptr %4, i32 0, i32 1
  %39 = load i32, ptr %38, align 4
  %40 = sext i32 %39 to i64
  %41 = getelementptr inbounds [200 x %struct.futureTricks], ptr %37, i64 0, i64 %40
  %42 = load ptr, ptr getelementptr inbounds nuw (%struct.paramType, ptr @param, i32 0, i32 2), align 8
  %43 = getelementptr inbounds nuw %struct.solvedBoards, ptr %42, i32 0, i32 1
  %44 = load i32, ptr %3, align 4
  %45 = sext i32 %44 to i64
  %46 = getelementptr inbounds [200 x %struct.futureTricks], ptr %43, i64 0, i64 %45
  call void @llvm.memcpy.p0.p0.i64(ptr align 4 %46, ptr align 4 %41, i64 216, i1 false)
  br label %6, !llvm.loop !6

47:                                               ; preds = %18, %14
  %48 = load i32, ptr %2, align 4
  %49 = load i32, ptr %3, align 4
  call void @_Z17SolveSingleCommonii(i32 noundef %48, i32 noundef %49)
  br label %50

50:                                               ; preds = %47
  br label %6, !llvm.loop !6

51:                                               ; preds = %13
  ret void
}