; Function Attrs: mustprogress uwtable
define void @_Z16SolveChunkCommoni(i32 noundef %0) local_unnamed_addr #3 {
  %2 = alloca %struct.futureTricks, align 4
  %3 = alloca %struct.deal, align 8
  %4 = tail call i64 @_ZN9Scheduler9GetNumberEi(ptr noundef nonnull align 8 dereferenceable(43416) @scheduler, i32 noundef %0)
  %5 = and i64 %4, 4294967295
  %6 = icmp eq i64 %5, 4294967295
  br i1 %6, label %._crit_edge, label %.lr.ph

.lr.ph:                                           ; preds = %1, %.backedge
  %7 = phi i64 [ %22, %.backedge ], [ %4, %1 ]
  %.not = icmp ugt i64 %7, -4294967297
  %.pre = load ptr, ptr getelementptr inbounds nuw (i8, ptr @param, i64 8), align 8
  br i1 %.not, label %.lr.ph._crit_edge, label %8

.lr.ph._crit_edge:                                ; preds = %.lr.ph
  %.pre13 = shl i64 %7, 32
  %.pre14 = ashr exact i64 %.pre13, 32
  br label %25

8:                                                ; preds = %.lr.ph
  %9 = getelementptr inbounds nuw i8, ptr %.pre, i64 4
  %sext = shl i64 %7, 32
  %10 = ashr exact i64 %sext, 32
  %.idx = mul nsw i64 %10, 96
  %.offs = or disjoint i64 %.idx, 4
  %11 = getelementptr inbounds i8, ptr %9, i64 %.offs
  %12 = load i32, ptr %11, align 4
  %13 = ashr i64 %7, 32
  %.idx10 = mul nsw i64 %13, 96
  %.offs11 = or disjoint i64 %.idx10, 4
  %14 = getelementptr inbounds i8, ptr %9, i64 %.offs11
  %15 = load i32, ptr %14, align 4
  %16 = icmp eq i32 %12, %15
  br i1 %16, label %17, label %25

17:                                               ; preds = %8
  %18 = load ptr, ptr getelementptr inbounds nuw (i8, ptr @param, i64 16), align 8
  %19 = getelementptr inbounds nuw i8, ptr %18, i64 4
  %20 = getelementptr inbounds [200 x %struct.futureTricks], ptr %19, i64 0, i64 %13
  %21 = getelementptr inbounds [200 x %struct.futureTricks], ptr %19, i64 0, i64 %10
  call void @llvm.memcpy.p0.p0.i64(ptr noundef nonnull align 4 dereferenceable(216) %21, ptr noundef nonnull align 4 dereferenceable(216) %20, i64 216, i1 false)
  br label %.backedge

.backedge:                                        ; preds = %17, %_Z17SolveSingleCommonii.exit
  %22 = call i64 @_ZN9Scheduler9GetNumberEi(ptr noundef nonnull align 8 dereferenceable(43416) @scheduler, i32 noundef %0)
  %23 = and i64 %22, 4294967295
  %24 = icmp eq i64 %23, 4294967295
  br i1 %24, label %._crit_edge, label %.lr.ph, !llvm.loop !6

25:                                               ; preds = %.lr.ph._crit_edge, %8
  %.pre-phi = phi i64 [ %.pre14, %.lr.ph._crit_edge ], [ %10, %8 ]
  call void @llvm.lifetime.start.p0(i64 216, ptr nonnull %2)
  call void @llvm.lifetime.start.p0(i64 96, ptr nonnull %3)
  %26 = getelementptr inbounds nuw i8, ptr %.pre, i64 4
  %27 = getelementptr inbounds [200 x %struct.deal], ptr %26, i64 0, i64 %.pre-phi
  call void @llvm.memcpy.p0.p0.i64(ptr noundef nonnull align 8 dereferenceable(96) %3, ptr noundef nonnull align 4 dereferenceable(96) %27, i64 96, i1 false)
  %28 = getelementptr inbounds nuw i8, ptr %.pre, i64 19204
  %29 = getelementptr inbounds [200 x i32], ptr %28, i64 0, i64 %.pre-phi
  %30 = load i32, ptr %29, align 4
  %31 = getelementptr inbounds nuw i8, ptr %.pre, i64 20004
  %32 = getelementptr inbounds [200 x i32], ptr %31, i64 0, i64 %.pre-phi
  %33 = load i32, ptr %32, align 4
  %34 = getelementptr inbounds nuw i8, ptr %.pre, i64 20804
  %35 = getelementptr inbounds [200 x i32], ptr %34, i64 0, i64 %.pre-phi
  %36 = load i32, ptr %35, align 4
  %37 = call i32 @SolveBoard(ptr noundef nonnull byval(%struct.deal) align 8 %3, i32 noundef %30, i32 noundef %33, i32 noundef %36, ptr noundef nonnull %2, i32 noundef %0)
  %38 = icmp eq i32 %37, 1
  br i1 %38, label %39, label %43

39:                                               ; preds = %25
  %40 = load ptr, ptr getelementptr inbounds nuw (i8, ptr @param, i64 16), align 8
  %41 = getelementptr inbounds nuw i8, ptr %40, i64 4
  %42 = getelementptr inbounds [200 x %struct.futureTricks], ptr %41, i64 0, i64 %.pre-phi
  call void @llvm.memcpy.p0.p0.i64(ptr noundef nonnull align 4 dereferenceable(216) %42, ptr noundef nonnull align 4 dereferenceable(216) %2, i64 216, i1 false)
  br label %_Z17SolveSingleCommonii.exit

43:                                               ; preds = %25
  store i32 %37, ptr getelementptr inbounds nuw (i8, ptr @param, i64 24), align 8
  br label %_Z17SolveSingleCommonii.exit

_Z17SolveSingleCommonii.exit:                     ; preds = %39, %43
  call void @llvm.lifetime.end.p0(i64 216, ptr nonnull %2)
  call void @llvm.lifetime.end.p0(i64 96, ptr nonnull %3)
  br label %.backedge

._crit_edge:                                      ; preds = %.backedge, %1
  ret void
}